target datalayout = "e-m:e-p270:32:32-p271:32:32-p272:64:64-i64:64-i128:128-f80:128-n8:16:32:64-S128"
target triple = "x86_64-pc-linux-gnu"

%struct.jit_State = type { %struct.GCtrace, ptr, ptr, ptr, ptr, ptr, ptr, i32, i32, i32, i8, i8, %struct.IRType1, i8, %struct.FoldState, ptr, i32, i32, i32, i32, i32, i32, i32, [1 x i32], [5 x %union.TValue], [3 x %union.TValue], ptr, i32, i32, i32, i32, ptr, ptr, i32, i32, i8, ptr, i32, i32, i16, [101 x i16], [258 x i32], [15 x i32], [16 x ptr], [64 x %struct.HotPenalty], i32, [16 x %struct.BPropEntry], i32, %struct.ScEvEntry, ptr, i32, i32, i32, ptr, i32, i32, ptr, ptr, ptr, i64, i64, %union.TValue, ptr, i32, i32 }
%struct.GCtrace = type { %struct.GCRef, i8, i8, i16, i32, i32, %struct.GCRef, ptr, i32, i32, ptr, ptr, %struct.GCRef, %struct.MRef, i32, i32, ptr, i32, i16, i16, i16, i16, i16, i16, i16, i8, i8, i8, i8 }
%struct.GCRef = type { i64 }
%struct.MRef = type { i64 }
%struct.IRType1 = type { i8 }
%struct.FoldState = type { %union.IRIns, [2 x %union.IRIns], [2 x %union.IRIns] }
%union.IRIns = type { %struct.GCRef }
%struct.HotPenalty = type { %struct.MRef, i16, i16 }
%struct.BPropEntry = type { i16, i16, i32 }
%struct.ScEvEntry = type { %struct.MRef, i16, i16, i16, i16, %struct.IRType1, i8 }
%union.TValue = type { i64 }
%struct.anon.0 = type { i32, %struct.IRType1, i8, i8, i8 }
%struct.anon = type { i16, i16, i16, i16 }

; Function Attrs: nounwind uwtable
define internal i32 @fold_simplify_conv_sext(ptr noundef %0) #0 {
  %2 = alloca i32, align 4
  %3 = alloca ptr, align 8
  %4 = alloca i32, align 4
  %5 = alloca i64, align 8
  %6 = alloca i32, align 4
  %7 = alloca i32, align 4
  store ptr %0, ptr %3, align 8, !tbaa !4
  call void @llvm.lifetime.start.p0(i64 4, ptr %4) #8
  %8 = load ptr, ptr %3, align 8, !tbaa !4
  %9 = getelementptr inbounds nuw %struct.jit_State, ptr %8, i32 0, i32 14
  %10 = getelementptr inbounds nuw %struct.FoldState, ptr %9, i32 0, i32 0
  %11 = getelementptr inbounds nuw %struct.anon, ptr %10, i32 0, i32 0
  %12 = load i16, ptr %11, align 8, !tbaa !29
  %13 = zext i16 %12 to i32
  store i32 %13, ptr %4, align 4, !tbaa !30
  call void @llvm.lifetime.start.p0(i64 8, ptr %5) #8
  store i64 0, ptr %5, align 8, !tbaa !52
  %14 = load ptr, ptr %3, align 8, !tbaa !4
  %15 = getelementptr inbounds nuw %struct.jit_State, ptr %14, i32 0, i32 14
  %16 = getelementptr inbounds nuw %struct.FoldState, ptr %15, i32 0, i32 0
  %17 = getelementptr inbounds nuw %struct.anon, ptr %16, i32 0, i32 1
  %18 = load i16, ptr %17, align 2, !tbaa !29
  %19 = zext i16 %18 to i32
  %20 = and i32 %19, 2048
  %21 = icmp ne i32 %20, 0
  br i1 %21, label %23, label %22

22:                                               ; preds = %1
  store i32 0, ptr %2, align 4
  store i32 1, ptr %6, align 4
  br label %173

23:                                               ; preds = %1
  %24 = load ptr, ptr %3, align 8, !tbaa !4
  %25 = getelementptr inbounds nuw %struct.jit_State, ptr %24, i32 0, i32 14
  %26 = getelementptr inbounds nuw %struct.FoldState, ptr %25, i32 0, i32 1
  %27 = getelementptr inbounds [2 x %union.IRIns], ptr %26, i64 0, i64 0
  %28 = getelementptr inbounds nuw %struct.anon.0, ptr %27, i32 0, i32 1
  %29 = getelementptr inbounds nuw %struct.IRType1, ptr %28, i32 0, i32 0
  %30 = load i8, ptr %29, align 4, !tbaa !29
  %31 = zext i8 %30 to i32
  %32 = and i32 %31, 64
  %33 = icmp ne i32 %32, 0
  br i1 %33, label %34, label %35

34:                                               ; preds = %23
  store i32 0, ptr %2, align 4
  store i32 1, ptr %6, align 4
  br label %173

35:                                               ; preds = %23
  %36 = load ptr, ptr %3, align 8, !tbaa !4
  %37 = getelementptr inbounds nuw %struct.jit_State, ptr %36, i32 0, i32 14
  %38 = getelementptr inbounds nuw %struct.FoldState, ptr %37, i32 0, i32 1
  %39 = getelementptr inbounds [2 x %union.IRIns], ptr %38, i64 0, i64 0
  %40 = getelementptr inbounds nuw %struct.anon.0, ptr %39, i32 0, i32 2
  %41 = load i8, ptr %40, align 1, !tbaa !29
  %42 = zext i8 %41 to i32
  %43 = icmp eq i32 %42, 70
  br i1 %43, label %44, label %67

44:                                               ; preds = %35
  %45 = load ptr, ptr %3, align 8, !tbaa !4
  %46 = getelementptr inbounds nuw %struct.jit_State, ptr %45, i32 0, i32 14
  %47 = getelementptr inbounds nuw %struct.FoldState, ptr %46, i32 0, i32 1
  %48 = getelementptr inbounds [2 x %union.IRIns], ptr %47, i64 0, i64 0
  %49 = getelementptr inbounds nuw %struct.anon.0, ptr %48, i32 0, i32 1
  %50 = getelementptr inbounds nuw %struct.IRType1, ptr %49, i32 0, i32 0
  %51 = load i8, ptr %50, align 4, !tbaa !29
  %52 = zext i8 %51 to i32
  %53 = and i32 %52, 31
  %54 = icmp eq i32 %53, 16
  br i1 %54, label %66, label %55

55:                                               ; preds = %44
  %56 = load ptr, ptr %3, align 8, !tbaa !4
  %57 = getelementptr inbounds nuw %struct.jit_State, ptr %56, i32 0, i32 14
  %58 = getelementptr inbounds nuw %struct.FoldState, ptr %57, i32 0, i32 1
  %59 = getelementptr inbounds [2 x %union.IRIns], ptr %58, i64 0, i64 0
  %60 = getelementptr inbounds nuw %struct.anon.0, ptr %59, i32 0, i32 1
  %61 = getelementptr inbounds nuw %struct.IRType1, ptr %60, i32 0, i32 0
  %62 = load i8, ptr %61, align 4, !tbaa !29
  %63 = zext i8 %62 to i32
  %64 = and i32 %63, 31
  %65 = icmp eq i32 %64, 18
  br i1 %65, label %66, label %67

66:                                               ; preds = %55, %44
  br label %164

67:                                               ; preds = %55, %35
  %68 = load ptr, ptr %3, align 8, !tbaa !4
  %69 = getelementptr inbounds nuw %struct.jit_State, ptr %68, i32 0, i32 14
  %70 = getelementptr inbounds nuw %struct.FoldState, ptr %69, i32 0, i32 1
  %71 = getelementptr inbounds [2 x %union.IRIns], ptr %70, i64 0, i64 0
  %72 = getelementptr inbounds nuw %struct.anon.0, ptr %71, i32 0, i32 2
  %73 = load i8, ptr %72, align 1, !tbaa !29
  %74 = zext i8 %73 to i32
  %75 = icmp eq i32 %74, 41
  br i1 %75, label %76, label %107

76:                                               ; preds = %67
  %77 = load ptr, ptr %3, align 8, !tbaa !4
  %78 = getelementptr inbounds nuw %struct.jit_State, ptr %77, i32 0, i32 14
  %79 = getelementptr inbounds nuw %struct.FoldState, ptr %78, i32 0, i32 1
  %80 = getelementptr inbounds [2 x %union.IRIns], ptr %79, i64 0, i64 0
  %81 = getelementptr inbounds nuw %struct.anon, ptr %80, i32 0, i32 1
  %82 = load i16, ptr %81, align 2, !tbaa !29
  %83 = zext i16 %82 to i32
  %84 = icmp slt i32 %83, 32768
  br i1 %84, label %85, label %107

85:                                               ; preds = %76
  %86 = load ptr, ptr %3, align 8, !tbaa !4
  %87 = getelementptr inbounds nuw %struct.jit_State, ptr %86, i32 0, i32 0
  %88 = getelementptr inbounds nuw %struct.GCtrace, ptr %87, i32 0, i32 7
  %89 = load ptr, ptr %88, align 8, !tbaa !32
  %90 = load ptr, ptr %3, align 8, !tbaa !4
  %91 = getelementptr inbounds nuw %struct.jit_State, ptr %90, i32 0, i32 14
  %92 = getelementptr inbounds nuw %struct.FoldState, ptr %91, i32 0, i32 1
  %93 = getelementptr inbounds [2 x %union.IRIns], ptr %92, i64 0, i64 0
  %94 = getelementptr inbounds nuw %struct.anon, ptr %93, i32 0, i32 1
  %95 = load i16, ptr %94, align 2, !tbaa !29
  %96 = zext i16 %95 to i64
  %97 = getelementptr inbounds nuw %union.IRIns, ptr %89, i64 %96
  %98 = load i32, ptr %97, align 8, !tbaa !29
  %99 = sext i32 %98 to i64
  store i64 %99, ptr %5, align 8, !tbaa !52
  %100 = load ptr, ptr %3, align 8, !tbaa !4
  %101 = getelementptr inbounds nuw %struct.jit_State, ptr %100, i32 0, i32 14
  %102 = getelementptr inbounds nuw %struct.FoldState, ptr %101, i32 0, i32 1
  %103 = getelementptr inbounds [2 x %union.IRIns], ptr %102, i64 0, i64 0
  %104 = getelementptr inbounds nuw %struct.anon, ptr %103, i32 0, i32 0
  %105 = load i16, ptr %104, align 8, !tbaa !29
  %106 = zext i16 %105 to i32
  store i32 %106, ptr %4, align 4, !tbaa !30
  br label %107

107:                                              ; preds = %85, %76, %67
  %108 = load i32, ptr %4, align 4, !tbaa !30
  %109 = load ptr, ptr %3, align 8, !tbaa !4
  %110 = getelementptr inbounds nuw %struct.jit_State, ptr %109, i32 0, i32 48
  %111 = getelementptr inbounds nuw %struct.ScEvEntry, ptr %110, i32 0, i32 1
  %112 = load i16, ptr %111, align 8, !tbaa !79
  %113 = zext i16 %112 to i32
  %114 = icmp eq i32 %108, %113
  br i1 %114, label %115, label %172

115:                                              ; preds = %107
  %116 = load ptr, ptr %3, align 8, !tbaa !4
  %117 = getelementptr inbounds nuw %struct.jit_State, ptr %116, i32 0, i32 48
  %118 = getelementptr inbounds nuw %struct.ScEvEntry, ptr %117, i32 0, i32 6
  %119 = load i8, ptr %118, align 1, !tbaa !80
  %120 = zext i8 %119 to i32
  %121 = icmp ne i32 %120, 0
  br i1 %121, label %122, label %128

122:                                              ; preds = %115
  %123 = load ptr, ptr %3, align 8, !tbaa !4
  %124 = getelementptr inbounds nuw %struct.jit_State, ptr %123, i32 0, i32 48
  %125 = getelementptr inbounds nuw %struct.ScEvEntry, ptr %124, i32 0, i32 2
  %126 = load i16, ptr %125, align 2, !tbaa !81
  %127 = zext i16 %126 to i32
  br label %134

128:                                              ; preds = %115
  %129 = load ptr, ptr %3, align 8, !tbaa !4
  %130 = getelementptr inbounds nuw %struct.jit_State, ptr %129, i32 0, i32 48
  %131 = getelementptr inbounds nuw %struct.ScEvEntry, ptr %130, i32 0, i32 3
  %132 = load i16, ptr %131, align 4, !tbaa !82
  %133 = zext i16 %132 to i32
  br label %134

134:                                              ; preds = %128, %122
  %135 = phi i32 [ %127, %122 ], [ %133, %128 ]
  store i32 %135, ptr %7, align 4, !tbaa !30
  %136 = load i32, ptr %7, align 4, !tbaa !30
  %137 = icmp ne i32 %136, 0
  br i1 %137, label %138, label %171

138:                                              ; preds = %134
  %139 = load ptr, ptr %3, align 8, !tbaa !4
  %140 = getelementptr inbounds nuw %struct.jit_State, ptr %139, i32 0, i32 0
  %141 = getelementptr inbounds nuw %struct.GCtrace, ptr %140, i32 0, i32 7
  %142 = load ptr, ptr %141, align 8, !tbaa !32
  %143 = load i32, ptr %7, align 4, !tbaa !30
  %144 = zext i32 %143 to i64
  %145 = getelementptr inbounds nuw %union.IRIns, ptr %142, i64 %144
  %146 = getelementptr inbounds nuw %struct.anon.0, ptr %145, i32 0, i32 2
  %147 = load i8, ptr %146, align 1, !tbaa !29
  %148 = zext i8 %147 to i32
  %149 = icmp eq i32 %148, 23
  br i1 %149, label %150, label %171

150:                                              ; preds = %138
  %151 = load ptr, ptr %3, align 8, !tbaa !4
  %152 = getelementptr inbounds nuw %struct.jit_State, ptr %151, i32 0, i32 0
  %153 = getelementptr inbounds nuw %struct.GCtrace, ptr %152, i32 0, i32 7
  %154 = load ptr, ptr %153, align 8, !tbaa !32
  %155 = load i32, ptr %7, align 4, !tbaa !30
  %156 = zext i32 %155 to i64
  %157 = getelementptr inbounds nuw %union.IRIns, ptr %154, i64 %156
  %158 = load i32, ptr %157, align 8, !tbaa !29
  %159 = sext i32 %158 to i64
  %160 = load i64, ptr %5, align 8, !tbaa !52
  %161 = add nsw i64 %159, %160
  %162 = icmp sge i64 %161, 0
  br i1 %162, label %163, label %171

163:                                              ; preds = %150
  br label %164

164:                                              ; preds = %163, %66
  %165 = load ptr, ptr %3, align 8, !tbaa !4
  %166 = getelementptr inbounds nuw %struct.jit_State, ptr %165, i32 0, i32 14
  %167 = getelementptr inbounds nuw %struct.FoldState, ptr %166, i32 0, i32 0
  %168 = getelementptr inbounds nuw %struct.anon, ptr %167, i32 0, i32 0
  %169 = load i16, ptr %168, align 8, !tbaa !29
  %170 = zext i16 %169 to i32
  store i32 %170, ptr %2, align 4
  store i32 1, ptr %6, align 4
  br label %173

171:                                              ; preds = %150, %138, %134
  br label %172

172:                                              ; preds = %171, %107
  store i32 0, ptr %2, align 4
  store i32 1, ptr %6, align 4
  br label %173

173:                                              ; preds = %172, %164, %34, %22
  call void @llvm.lifetime.end.p0(i64 8, ptr %5) #8
  call void @llvm.lifetime.end.p0(i64 4, ptr %4) #8
  %174 = load i32, ptr %2, align 4
  ret i32 %174
}