; Function Attrs: mustprogress nofree norecurse nosync nounwind willreturn memory(read, inaccessiblemem: none) uwtable
define internal range(i32 0, 65536) i32 @fold_simplify_conv_sext(ptr noundef readonly captures(none) %0) #7 {
  %2 = getelementptr inbounds nuw i8, ptr %0, i64 184
  %3 = load i16, ptr %2, align 8, !tbaa !28
  %4 = getelementptr inbounds nuw i8, ptr %0, i64 186
  %5 = load i16, ptr %4, align 2, !tbaa !28
  %6 = and i16 %5, 2048
  %.not = icmp eq i16 %6, 0
  br i1 %.not, label %51, label %7

7:                                                ; preds = %1
  %8 = getelementptr inbounds nuw i8, ptr %0, i64 192
  %9 = getelementptr inbounds nuw i8, ptr %0, i64 196
  %10 = load i8, ptr %9, align 4, !tbaa !28
  %11 = zext i8 %10 to i32
  %12 = and i32 %11, 64
  %.not27 = icmp eq i32 %12, 0
  br i1 %.not27, label %13, label %51

13:                                               ; preds = %7
  %14 = getelementptr inbounds nuw i8, ptr %0, i64 197
  %15 = load i8, ptr %14, align 1, !tbaa !28
  switch i8 %15, label %.thread [
    i8 70, label %16
    i8 41, label %18
  ]

16:                                               ; preds = %13
  %17 = and i32 %11, 31
  switch i32 %17, label %.thread [
    i32 16, label %49
    i32 18, label %49
  ]

18:                                               ; preds = %13
  %19 = getelementptr inbounds nuw i8, ptr %0, i64 194
  %20 = load i16, ptr %19, align 2, !tbaa !28
  %21 = icmp sgt i16 %20, -1
  br i1 %21, label %22, label %.thread

22:                                               ; preds = %18
  %23 = getelementptr inbounds nuw i8, ptr %0, i64 32
  %24 = load ptr, ptr %23, align 8, !tbaa !30
  %25 = zext nneg i16 %20 to i64
  %26 = getelementptr inbounds nuw %union.IRIns, ptr %24, i64 %25
  %27 = load i32, ptr %26, align 8, !tbaa !28
  %28 = sext i32 %27 to i64
  %29 = load i16, ptr %8, align 8, !tbaa !28
  br label %.thread

.thread:                                          ; preds = %13, %16, %22, %18
  %.024.in = phi i16 [ %29, %22 ], [ %3, %18 ], [ %3, %16 ], [ %3, %13 ]
  %.023 = phi i64 [ %28, %22 ], [ 0, %18 ], [ 0, %16 ], [ 0, %13 ]
  %30 = getelementptr inbounds nuw i8, ptr %0, i64 2992
  %31 = load i16, ptr %30, align 8, !tbaa !75
  %32 = icmp eq i16 %.024.in, %31
  br i1 %32, label %33, label %51

33:                                               ; preds = %.thread
  %34 = getelementptr inbounds nuw i8, ptr %0, i64 3001
  %35 = load i8, ptr %34, align 1, !tbaa !76
  %.not28 = icmp eq i8 %35, 0
  %.in.in.v = select i1 %.not28, i64 2996, i64 2994
  %.in.in = getelementptr inbounds nuw i8, ptr %0, i64 %.in.in.v
  %.in = load i16, ptr %.in.in, align 2, !tbaa !38
  %.not29 = icmp eq i16 %.in, 0
  br i1 %.not29, label %51, label %36

36:                                               ; preds = %33
  %37 = getelementptr inbounds nuw i8, ptr %0, i64 32
  %38 = load ptr, ptr %37, align 8, !tbaa !30
  %39 = zext i16 %.in to i64
  %40 = getelementptr inbounds nuw %union.IRIns, ptr %38, i64 %39
  %41 = getelementptr inbounds nuw i8, ptr %40, i64 5
  %42 = load i8, ptr %41, align 1, !tbaa !28
  %43 = icmp eq i8 %42, 23
  br i1 %43, label %44, label %51

44:                                               ; preds = %36
  %45 = load i32, ptr %40, align 8, !tbaa !28
  %46 = sext i32 %45 to i64
  %47 = add nsw i64 %.023, %46
  %48 = icmp sgt i64 %47, -1
  br i1 %48, label %49, label %51

49:                                               ; preds = %16, %16, %44
  %50 = zext i16 %3 to i32
  br label %51

51:                                               ; preds = %.thread, %44, %36, %33, %7, %1, %49
  %.0 = phi i32 [ %50, %49 ], [ 0, %1 ], [ 0, %7 ], [ 0, %33 ], [ 0, %36 ], [ 0, %44 ], [ 0, %.thread ]
  ret i32 %.0
}